; Function Attrs: mustprogress uwtable
define void @_ZN2mu10ParserBase11ResetLocaleEv(ptr nocapture noundef nonnull readonly align 8 dereferenceable(596) %0) local_unnamed_addr #7 align 2 personality ptr @__gxx_personality_v0 {
  %2 = alloca %"class.std::locale", align 8
  %3 = alloca %"class.std::locale", align 8
  call void @_ZNSt6localeC1EPKc(ptr noundef nonnull align 8 dereferenceable(8) %3, ptr noundef nonnull @.str.23)
  %4 = invoke noalias noundef nonnull dereferenceable(32) ptr @_Znwm(i64 noundef 32) #30
          to label %5 unwind label %14

5:                                                ; preds = %1
  invoke void @_ZNSt7__cxx118numpunctIcEC2Em(ptr noundef nonnull align 8 dereferenceable(24) %4, i64 noundef 0)
          to label %6 unwind label %16

6:                                                ; preds = %5
  store ptr getelementptr inbounds inrange(-16, 56) ({ [9 x ptr] }, ptr @_ZTVN2mu10ParserBase14change_dec_sepIcEE, i64 0, i32 0, i64 2), ptr %4, align 8
  %7 = getelementptr inbounds i8, ptr %4, i64 24
  store i32 3, ptr %7, align 8
  %8 = getelementptr inbounds i8, ptr %4, i64 28
  store i8 46, ptr %8, align 4
  %9 = getelementptr inbounds i8, ptr %4, i64 29
  store i8 0, ptr %9, align 1
  invoke void @_ZNSt6localeC2IN2mu10ParserBase14change_dec_sepIcEEEERKS_PT_(ptr noundef nonnull align 8 dereferenceable(8) %2, ptr noundef nonnull align 8 dereferenceable(8) %3, ptr noundef nonnull %4)
          to label %10 unwind label %14

10:                                               ; preds = %6
  %11 = call noundef nonnull align 8 dereferenceable(8) ptr @_ZNSt6localeaSERKS_(ptr noundef nonnull align 8 dereferenceable(8) @_ZN2mu10ParserBase8s_localeE, ptr noundef nonnull align 8 dereferenceable(8) %2) #23
  call void @_ZNSt6localeD1Ev(ptr noundef nonnull align 8 dereferenceable(8) %2) #23
  call void @_ZNSt6localeD1Ev(ptr noundef nonnull align 8 dereferenceable(8) %3) #23
  %12 = getelementptr inbounds i8, ptr %0, i64 120
  %13 = load ptr, ptr %12, align 8
  call void @_ZN2mu17ParserTokenReader9SetArgSepEc(ptr noundef nonnull align 8 dereferenceable(400) %13, i8 noundef signext 44)
  ret void

14:                                               ; preds = %6, %1
  %15 = landingpad { ptr, i32 }
          cleanup
  br label %18

16:                                               ; preds = %5
  %17 = landingpad { ptr, i32 }
          cleanup
  call void @_ZdlPv(ptr noundef nonnull %4) #31
  br label %18

18:                                               ; preds = %16, %14
  %.pn = phi { ptr, i32 } [ %15, %14 ], [ %17, %16 ]
  call void @_ZNSt6localeD1Ev(ptr noundef nonnull align 8 dereferenceable(8) %3) #23
  resume { ptr, i32 } %.pn
}